#include <math.h>
#include <stdio.h>
#include <stdlib.h>
#include <string.h>

void main()
{int a,b,c,d,e,f;
scanf("%d",&a);
b=a/10000;
c=a/1000-b*10;
d=a/100-b*100-c*10;
e=a/10-b*1000-c*100-d*10;
f=a-b*10000-c*1000-d*100-e*10;
if(b!=0)
{printf("%d",f*10000+e*1000+d*100+c*10+b);}
else if (c!=0)
{printf("%d",f*1000+e*100+d*10+c);}
else if (d!=0)
{printf("%d",f*100+e*10+d);}
else if (e!=0)
{printf("%d",f*10+e);}
else if (f!=0)
{printf("%d",f);}
else {printf("0");}
}