; ModuleID = 'source-C-CXX/55/1675.c'
source_filename = "source-C-CXX/55/1675.c"
target datalayout = "e-m:e-p270:32:32-p271:32:32-p272:64:64-i64:64-f80:128-n8:16:32:64-S128"
target triple = "x86_64-pc-linux-gnu"

@.str = private unnamed_addr constant [3 x i8] c"%d\00", align 1

; Function Attrs: nofree nounwind sspstrong uwtable
define dso_local void @main() local_unnamed_addr #0 {
  %1 = alloca i32, align 4
  %2 = bitcast i32* %1 to i8*
  call void @llvm.lifetime.start.p0i8(i64 4, i8* nonnull %2) #4
  %3 = call i32 (i8*, ...) @__isoc99_scanf(i8* getelementptr inbounds ([3 x i8], [3 x i8]* @.str, i64 0, i64 0), i32* nonnull %1)
  %4 = load i32, i32* %1, align 4, !tbaa !5
  %5 = sdiv i32 %4, 10000
  %6 = sdiv i32 %4, 1000
  %7 = mul nsw i32 %5, -10
  %8 = add nsw i32 %7, %6
  %9 = sdiv i32 %4, 100
  %10 = mul nsw i32 %5, -100
  %11 = add nsw i32 %10, %9
  %12 = mul nsw i32 %8, 10
  %13 = sub nsw i32 %11, %12
  %14 = sdiv i32 %4, 10
  %15 = mul nsw i32 %5, -1000
  %16 = add nsw i32 %15, %14
  %17 = mul nsw i32 %8, -100
  %18 = add nsw i32 %16, %17
  %19 = mul nsw i32 %13, 10
  %20 = sub nsw i32 %18, %19
  %21 = mul nsw i32 %5, -10000
  %22 = mul i32 %8, -1000
  %23 = mul nsw i32 %13, 100
  %24 = mul nsw i32 %20, 10
  %25 = add i32 %21, %4
  %26 = add i32 %25, %22
  %27 = add i32 %23, %24
  %28 = sub i32 %26, %27
  %29 = add i32 %4, 9999
  %30 = icmp ult i32 %29, 19999
  br i1 %30, label %39, label %31

31:                                               ; preds = %0
  %32 = mul nsw i32 %28, 10000
  %33 = mul nsw i32 %20, 1000
  %34 = add nsw i32 %12, %5
  %35 = add i32 %34, %23
  %36 = add i32 %35, %33
  %37 = add i32 %36, %32
  %38 = call i32 (i8*, ...) @printf(i8* nonnull dereferenceable(1) getelementptr inbounds ([3 x i8], [3 x i8]* @.str, i64 0, i64 0), i32 %37)
  br label %67

39:                                               ; preds = %0
  %40 = icmp eq i32 %8, 0
  br i1 %40, label %48, label %41

41:                                               ; preds = %39
  %42 = mul nsw i32 %28, 1000
  %43 = mul nsw i32 %20, 100
  %44 = add nsw i32 %19, %8
  %45 = add i32 %44, %43
  %46 = add i32 %45, %42
  %47 = call i32 (i8*, ...) @printf(i8* nonnull dereferenceable(1) getelementptr inbounds ([3 x i8], [3 x i8]* @.str, i64 0, i64 0), i32 %46)
  br label %67

48:                                               ; preds = %39
  %49 = icmp eq i32 %13, 0
  br i1 %49, label %55, label %50

50:                                               ; preds = %48
  %51 = mul nsw i32 %28, 100
  %52 = add i32 %24, %13
  %53 = add i32 %52, %51
  %54 = call i32 (i8*, ...) @printf(i8* nonnull dereferenceable(1) getelementptr inbounds ([3 x i8], [3 x i8]* @.str, i64 0, i64 0), i32 %53)
  br label %67

55:                                               ; preds = %48
  %56 = icmp eq i32 %20, 0
  br i1 %56, label %61, label %57

57:                                               ; preds = %55
  %58 = mul nsw i32 %28, 10
  %59 = add nsw i32 %58, %20
  %60 = call i32 (i8*, ...) @printf(i8* nonnull dereferenceable(1) getelementptr inbounds ([3 x i8], [3 x i8]* @.str, i64 0, i64 0), i32 %59)
  br label %67

61:                                               ; preds = %55
  %62 = icmp eq i32 %28, 0
  br i1 %62, label %65, label %63

63:                                               ; preds = %61
  %64 = call i32 (i8*, ...) @printf(i8* nonnull dereferenceable(1) getelementptr inbounds ([3 x i8], [3 x i8]* @.str, i64 0, i64 0), i32 %28)
  br label %67

65:                                               ; preds = %61
  %66 = call i32 @putchar(i32 48)
  br label %67

67:                                               ; preds = %41, %57, %65, %63, %50, %31
  call void @llvm.lifetime.end.p0i8(i64 4, i8* nonnull %2) #4
  ret void
}

; Function Attrs: argmemonly mustprogress nofree nosync nounwind willreturn
declare void @llvm.lifetime.start.p0i8(i64 immarg, i8* nocapture) #1

; Function Attrs: nofree nounwind
declare noundef i32 @__isoc99_scanf(i8* nocapture noundef readonly, ...) local_unnamed_addr #2

; Function Attrs: nofree nounwind
declare noundef i32 @printf(i8* nocapture noundef readonly, ...) local_unnamed_addr #2

; Function Attrs: argmemonly mustprogress nofree nosync nounwind willreturn
declare void @llvm.lifetime.end.p0i8(i64 immarg, i8* nocapture) #1

; Function Attrs: nofree nounwind
declare noundef i32 @putchar(i32 noundef) local_unnamed_addr #3


!llvm.module.flags = !{!0, !1, !2, !3}
!llvm.ident = !{!4}

!0 = !{i32 1, !"wchar_size", i32 4}
!1 = !{i32 7, !"PIC Level", i32 2}
!2 = !{i32 7, !"PIE Level", i32 2}
!3 = !{i32 7, !"uwtable", i32 1}
!4 = !{!"clang version 13.0.0"}
!5 = !{!6, !6, i64 0}
!6 = !{!"int", !7, i64 0}
!7 = !{!"omnipotent char", !8, i64 0}
!8 = !{!"Simple C/C++ TBAA"}
